; Function Attrs: mustprogress uwtable
define dso_local noundef zeroext i1 @_ZNK8Variable31is_partial_volatile_after_derefEi(ptr noundef nonnull align 8 dereferenceable(200) %0, i32 noundef %1) local_unnamed_addr #5 align 2 {
  %3 = icmp slt i32 %1, 0
  br i1 %3, label %13, label %4

4:                                                ; preds = %2
  %5 = getelementptr inbounds nuw i8, ptr %0, i64 104
  %6 = tail call noundef zeroext i1 @_ZNK12CVQualifiers23is_volatile_after_derefEi(ptr noundef nonnull align 8 dereferenceable(96) %5, i32 noundef %1)
  %7 = getelementptr inbounds nuw i8, ptr %0, i64 64
  %8 = load ptr, ptr %7, align 8
  %.not = icmp eq ptr %8, null
  %or.cond = select i1 %6, i1 true, i1 %.not
  br i1 %or.cond, label %13, label %.preheader

.preheader:                                       ; preds = %4
  %.not15 = icmp eq i32 %1, 0
  br i1 %.not15, label %._crit_edge, label %.lr.ph

.lr.ph:                                           ; preds = %.preheader, %.lr.ph
  %.014 = phi ptr [ %10, %.lr.ph ], [ %8, %.preheader ]
  %.0813 = phi i32 [ %11, %.lr.ph ], [ 0, %.preheader ]
  %9 = getelementptr inbounds nuw i8, ptr %.014, i64 8
  %10 = load ptr, ptr %9, align 8, !tbaa !158
  %11 = add nuw nsw i32 %.0813, 1
  %exitcond.not = icmp eq i32 %11, %1
  br i1 %exitcond.not, label %._crit_edge, label %.lr.ph, !llvm.loop !161

._crit_edge:                                      ; preds = %.lr.ph, %.preheader
  %.0.lcssa = phi ptr [ %8, %.preheader ], [ %10, %.lr.ph ]
  %12 = tail call noundef zeroext i1 @_ZNK4Type24is_volatile_struct_unionEv(ptr noundef nonnull align 8 dereferenceable(136) %.0.lcssa)
  br label %13

13:                                               ; preds = %4, %2, %._crit_edge
  %.09 = phi i1 [ %12, %._crit_edge ], [ false, %2 ], [ false, %4 ]
  ret i1 %.09
}